(dp0
VServer
p1
Vcmsweb.cern.ch
p2
sVPort
p3
V
p4
sVRequestName
p5
V220223_090030:zhenggan_crab_HardQCD_02Feb_2022_GEN_SIM
p6
sVvoRole
p7
VNULL
p8
sVvoGroup
p9
g4
sVinstance
p10
Vprod
p11
sVOriginalConfig
p12
ccopy_reg
_reconstructor
p13
(cWMCore.Configuration
Configuration
p14
c__builtin__
object
p15
Ntp16
Rp17
(dp18
V_internal_sections
p19
(lp20
VGeneral
p21
aVJobType
p22
aVData
p23
aVSite
p24
aVUser
p25
aVDebug
p26
asg21
g13
(cWMCore.Configuration
ConfigSection
p27
g15
Ntp28
Rp29
(dp30
V_internal_documentation
p31
g4
sV_internal_name
p32
g21
sV_internal_settings
p33
c__builtin__
set
p34
((lp35
VrequestName
p36
aVworkArea
p37
aVtransferOutputs
p38
atp39
Rp40
sV_internal_docstrings
p41
(dp42
sV_internal_children
p43
g34
((lp44
tp45
Rp46
sV_internal_parent_ref
p47
NsV_internal_skipChecks
p48
I00
sg36
VHardQCD_02Feb_2022_GEN_SIM
p49
sg37
Vcrab_projects_02Feb_2022_GEN_SIM
p50
sg38
I01
sbsg22
g13
(g27
g15
Ntp51
Rp52
(dp53
g31
g4
sg32
g22
sg33
g34
((lp54
VpluginName
p55
aVpsetName
p56
atp57
Rp58
sg41
(dp59
sg43
g34
((lp60
tp61
Rp62
sg47
Nsg48
I00
sg55
VPrivateMC
p63
sg56
VQCD_Pt_600_800_14TeV_TuneCUETP8M1_cfi_py_GEN_SIM.py
p64
sbsg23
g13
(g27
g15
Ntp65
Rp66
(dp67
g31
g4
sg32
g23
sg33
g34
((lp68
VoutputDatasetTag
p69
aVpublication
p70
aVsplitting
p71
aVtotalUnits
p72
aVunitsPerJob
p73
aVoutputPrimaryDataset
p74
atp75
Rp76
sg41
(dp77
sg43
g34
((lp78
tp79
Rp80
sg47
Nsg48
I00
sg71
VEventBased
p81
sg73
I250
sg72
I875000
sg70
I01
sg69
Vgeneration_simulation-stage
p82
sg74
VSpring_HardQCD_50_800_PAT_14TeV_TuneCUETP8M1_GEN_SIM
p83
sbsg24
g13
(g27
g15
Ntp84
Rp85
(dp86
g31
g4
sg32
g24
sg33
g34
((lp87
VstorageSite
p88
atp89
Rp90
sg41
(dp91
sg43
g34
((lp92
tp93
Rp94
sg47
Nsg48
I00
sg88
VT2_TW_NCHC
p95
sbsg25
g13
(g27
g15
Ntp96
Rp97
(dp98
g31
g4
sg32
g25
sg33
g34
((lp99
tp100
Rp101
sg41
(dp102
sg43
g34
((lp103
tp104
Rp105
sg47
Nsg48
I00
sbsg26
g13
(g27
g15
Ntp106
Rp107
(dp108
g31
g4
sg32
g26
sg33
g34
((lp109
tp110
Rp111
sg41
(dp112
sg43
g34
((lp113
tp114
Rp115
sg47
Nsg48
I00
sbsbs.