(dp0
VServer
p1
Vcmsweb.cern.ch
p2
sVPort
p3
V
p4
sVRequestName
p5
V220224_105422:zhenggan_crab_HardQCD_24Feb_2022_RECO_PAT
p6
sVvoRole
p7
VNULL
p8
sVvoGroup
p9
g4
sVinstance
p10
Vprod
p11
sVOriginalConfig
p12
ccopy_reg
_reconstructor
p13
(cWMCore.Configuration
Configuration
p14
c__builtin__
object
p15
Ntp16
Rp17
(dp18
V_internal_sections
p19
(lp20
VGeneral
p21
aVJobType
p22
aVData
p23
aVSite
p24
aVUser
p25
aVDebug
p26
asg21
g13
(cWMCore.Configuration
ConfigSection
p27
g15
Ntp28
Rp29
(dp30
V_internal_documentation
p31
g4
sV_internal_name
p32
g21
sV_internal_settings
p33
c__builtin__
set
p34
((lp35
VrequestName
p36
aVtransferOutputs
p37
aVworkArea
p38
atp39
Rp40
sV_internal_docstrings
p41
(dp42
sV_internal_children
p43
g34
((lp44
tp45
Rp46
sV_internal_parent_ref
p47
NsV_internal_skipChecks
p48
I00
sg36
VHardQCD_24Feb_2022_RECO_PAT
p49
sg38
Vcrab_project_24Feb_2022_RECO_PAT
p50
sg37
I01
sbsg22
g13
(g27
g15
Ntp51
Rp52
(dp53
g31
g4
sg32
g22
sg33
g34
((lp54
VmaxMemoryMB
p55
aVpsetName
p56
aVpluginName
p57
atp58
Rp59
sg41
(dp60
sg43
g34
((lp61
tp62
Rp63
sg47
Nsg48
I00
sg57
VAnalysis
p64
sg56
Vpat_workflow_cfi.py
p65
sg55
I3500
sbsg23
g13
(g27
g15
Ntp66
Rp67
(dp68
g31
g4
sg32
g23
sg33
g34
((lp69
VinputDBS
p70
aVoutputDatasetTag
p71
aVpublication
p72
aVsplitting
p73
aVunitsPerJob
p74
aVinputDataset
p75
aVignoreLocality
p76
atp77
Rp78
sg41
(dp79
sg43
g34
((lp80
tp81
Rp82
sg47
Nsg48
I00
sg75
V/Spring_HardQCD_50_800_PAT_14TeV_TuneCUETP8M1_GEN_SIM/zhenggan-generation_simulation-stage-aefed920e224c5a41ef91c9cfd58dfef/USER
p83
sg70
Vphys03
p84
sg73
VFileBased
p85
sg74
I1
sg72
I01
sg71
Vreconstruction_physiscsanalysistuple-stage
p86
sg76
I01
sbsg24
g13
(g27
g15
Ntp87
Rp88
(dp89
g31
g4
sg32
g24
sg33
g34
((lp90
VstorageSite
p91
aVignoreGlobalBlacklist
p92
aVwhitelist
p93
atp94
Rp95
sg41
(dp96
sg43
g34
((lp97
tp98
Rp99
sg47
Nsg48
I00
sg92
I01
sg91
VT2_TW_NCHC
p100
sg93
(lp101
g100
asbsg25
g13
(g27
g15
Ntp102
Rp103
(dp104
g31
g4
sg32
g25
sg33
g34
((lp105
tp106
Rp107
sg41
(dp108
sg43
g34
((lp109
tp110
Rp111
sg47
Nsg48
I00
sbsg26
g13
(g27
g15
Ntp112
Rp113
(dp114
g31
g4
sg32
g26
sg33
g34
((lp115
tp116
Rp117
sg41
(dp118
sg43
g34
((lp119
tp120
Rp121
sg47
Nsg48
I00
sbsbs.